; Function Attrs: nounwind uwtable
define internal noundef ptr @async_gen_asend_throw(ptr noundef captures(none) %0, ptr noundef readonly captures(none) %1, i64 noundef %2) #2 {
  %4 = getelementptr inbounds nuw i8, ptr %0, i64 32
  %5 = load i32, ptr %4, align 8, !tbaa !169
  switch i32 %5, label %._crit_edge [
    i32 2, label %6
    i32 0, label %8
  ]

._crit_edge:                                      ; preds = %3
  %.phi.trans.insert = getelementptr inbounds nuw i8, ptr %0, i64 16
  %.pre = load ptr, ptr %.phi.trans.insert, align 8, !tbaa !166
  br label %16

6:                                                ; preds = %3
  %7 = load ptr, ptr @PyExc_RuntimeError, align 8, !tbaa !32
  tail call void @PyErr_SetString(ptr noundef %7, ptr noundef nonnull @.str.77) #8
  br label %46

8:                                                ; preds = %3
  %9 = getelementptr inbounds nuw i8, ptr %0, i64 16
  %10 = load ptr, ptr %9, align 8, !tbaa !166
  %11 = getelementptr inbounds nuw i8, ptr %10, i64 66
  %12 = load i8, ptr %11, align 2, !tbaa !170
  %.not = icmp eq i8 %12, 0
  br i1 %.not, label %15, label %13

13:                                               ; preds = %8
  store i32 2, ptr %4, align 8, !tbaa !169
  %14 = load ptr, ptr @PyExc_RuntimeError, align 8, !tbaa !32
  tail call void @PyErr_SetString(ptr noundef %14, ptr noundef nonnull @.str.78) #8
  br label %46

15:                                               ; preds = %8
  store i32 1, ptr %4, align 8, !tbaa !169
  store i8 1, ptr %11, align 2, !tbaa !170
  br label %16

16:                                               ; preds = %._crit_edge, %15
  %17 = phi ptr [ %.pre, %._crit_edge ], [ %10, %15 ]
  %18 = getelementptr inbounds nuw i8, ptr %0, i64 16
  %19 = add i64 %2, -1
  %or.cond.i = icmp ult i64 %19, 3
  br i1 %or.cond.i, label %22, label %20

20:                                               ; preds = %16
  %21 = tail call i32 @_PyArg_CheckPositional(ptr noundef nonnull @.str.25, i64 noundef %2, i64 noundef 1, i64 noundef 3) #8
  %.not.i = icmp eq i32 %21, 0
  br i1 %.not.i, label %gen_throw.exit, label %22

22:                                               ; preds = %20, %16
  %23 = icmp sgt i64 %2, 1
  br i1 %23, label %24, label %28

24:                                               ; preds = %22
  %25 = load ptr, ptr @PyExc_DeprecationWarning, align 8, !tbaa !32
  %26 = tail call i32 @PyErr_WarnEx(ptr noundef %25, ptr noundef nonnull @.str.31, i64 noundef 1) #8
  %27 = icmp slt i32 %26, 0
  br i1 %27, label %gen_throw.exit, label %28

28:                                               ; preds = %24, %22
  %29 = load ptr, ptr %1, align 8, !tbaa !32
  switch i64 %2, label %38 [
    i64 3, label %30
    i64 2, label %35
  ]

30:                                               ; preds = %28
  %31 = getelementptr i8, ptr %1, i64 8
  %32 = load ptr, ptr %31, align 8, !tbaa !32
  %33 = getelementptr i8, ptr %1, i64 16
  %34 = load ptr, ptr %33, align 8, !tbaa !32
  br label %38

35:                                               ; preds = %28
  %36 = getelementptr i8, ptr %1, i64 8
  %37 = load ptr, ptr %36, align 8, !tbaa !32
  br label %38

38:                                               ; preds = %35, %30, %28
  %.015.i = phi ptr [ %34, %30 ], [ null, %35 ], [ null, %28 ]
  %.0.i = phi ptr [ %32, %30 ], [ %37, %35 ], [ null, %28 ]
  %39 = tail call fastcc ptr @_gen_throw(ptr noundef %17, i32 noundef 1, ptr noundef %29, ptr noundef %.0.i, ptr noundef %.015.i)
  br label %gen_throw.exit

gen_throw.exit:                                   ; preds = %20, %24, %38
  %.016.i = phi ptr [ %39, %38 ], [ null, %20 ], [ null, %24 ]
  %40 = load ptr, ptr %18, align 8, !tbaa !166
  %41 = tail call fastcc ptr @async_gen_unwrap_value(ptr noundef %40, ptr noundef %.016.i)
  %42 = icmp eq ptr %41, null
  br i1 %42, label %43, label %46

43:                                               ; preds = %gen_throw.exit
  %44 = load ptr, ptr %18, align 8, !tbaa !166
  %45 = getelementptr inbounds nuw i8, ptr %44, i64 66
  store i8 0, ptr %45, align 2, !tbaa !170
  store i32 2, ptr %4, align 8, !tbaa !169
  br label %46

46:                                               ; preds = %gen_throw.exit, %43, %13, %6
  %.0 = phi ptr [ null, %6 ], [ null, %13 ], [ null, %43 ], [ %41, %gen_throw.exit ]
  ret ptr %.0
}